; Function Attrs: mustprogress uwtable
define hidden noundef zeroext i1 @_ZNK4cvc58internal11NodeManager20safeToReclaimZombiesEv(ptr nocapture noundef nonnull readonly align 8 dereferenceable(3360) %this) local_unnamed_addr #3 align 2 {
entry:
  %d_inReclaimZombies = getelementptr inbounds i8, ptr %this, i64 96
  %0 = load i8, ptr %d_inReclaimZombies, align 8
  %1 = and i8 %0, 1
  %tobool.not = icmp eq i8 %1, 0
  br i1 %tobool.not, label %land.rhs, label %land.end

land.rhs:                                         ; preds = %entry
  %d_attrManager = getelementptr inbounds i8, ptr %this, i64 80
  %2 = load ptr, ptr %d_attrManager, align 8
  %call = tail call noundef zeroext i1 @_ZNK4cvc58internal4expr4attr16AttributeManager19inGarbageCollectionEv(ptr noundef nonnull align 8 dereferenceable(344) %2)
  %lnot = xor i1 %call, true
  br label %land.end

land.end:                                         ; preds = %land.rhs, %entry
  %3 = phi i1 [ false, %entry ], [ %lnot, %land.rhs ]
  ret i1 %3
}